(dp0
S'silverwalls'
p1
(lp2
(S'37450'
p3
S'Seishun Buta Yarou wa Bunny Girl Senpai no Yume wo Minai'
p4
tp5
a(S'37497'
p6
S'Irozuku Sekai no Ashita kara'
p7
tp8
a(S'37430'
p9
S'Tensei shitara Slime Datta Ken'
p10
tp11
a(S'37475'
p12
S'Kishuku Gakkou no Juliet'
p13
tp14
a(S'37786'
p15
S'Yagate Kimi ni Naru'
p16
tp17
a(S'37991'
p18
S'Jojo no Kimyou na Bouken: Ougon no Kaze'
p19
tp20
a(S'36510'
p21
S'Ulysses: Jehanne Darc to Renkin no Kishi'
p22
tp23
asS'Skullxro'
p24
(lp25
(g18
S'Jojo no Kimyou na Bouken: Ougon no Kaze'
p26
tp27
a(S'37202'
p28
S'Radiant'
p29
tp30
a(g9
S'Tensei shitara Slime Datta Ken'
p31
tp32
a(g3
S'Seishun Buta Yarou wa Bunny Girl Senpai no Yume wo Minai'
p33
tp34
a(g15
S'Yagate Kimi ni Naru'
p35
tp36
a(S'37976'
p37
S'Zombieland Saga'
p38
tp39
a(S'37989'
p40
S'Golden Kamuy 2nd Season'
p41
tp42
asS'kuuderes_shadow'
p43
(lp44
(S'37555'
p45
S'Hangyakusei Million Arthur'
p46
tp47
a(S'37232'
p48
S'Merc Storia: Mukiryoku no Shounen to Bin no Naka no Shoujo'
p49
tp50
a(S'36945'
p51
S'Himote House'
p52
tp53
a(S'37657'
p54
S'Gakuen Basara'
p55
tp56
a(S'37992'
p57
S'Jingai-san no Yome'
p58
tp59
a(S'37584'
p60
S'Bakumatsu'
p61
tp62
a(S'36000'
p63
S'Sora to Umi no Aida'
p64
tp65
asS'LeviathanHelium'
p66
(lp67
(g40
S'Golden Kamuy 2nd Season'
p68
tp69
a(g18
S'Jojo no Kimyou na Bouken: Ougon no Kaze'
p70
tp71
a(g6
S'Irozuku Sekai no Ashita kara'
p72
tp73
a(S'35847'
p74
S'SSSS.Gridman'
p75
tp76
a(g15
S'Yagate Kimi ni Naru'
p77
tp78
a(g3
S'Seishun Buta Yarou wa Bunny Girl Senpai no Yume wo Minai'
p79
tp80
a(g9
S'Tensei shitara Slime Datta Ken'
p81
tp82
asS'Sylent'
p83
(lp84
(g18
S'Jojo no Kimyou na Bouken: Ougon no Kaze'
p85
tp86
a(g3
S'Seishun Buta Yarou wa Bunny Girl Senpai no Yume wo Minai'
p87
tp88
a(g6
S'Irozuku Sekai no Ashita kara'
p89
tp90
a(g9
S'Tensei shitara Slime Datta Ken'
p91
tp92
a(g28
S'Radiant'
p93
tp94
a(g12
S'Kishuku Gakkou no Juliet'
p95
tp96
a(S'36632'
p97
S'Ore ga Suki nano wa Imouto dakedo Imouto ja Nai'
p98
tp99
asS'FullmetalAlias'
p100
(lp101
(g18
S'Jojo no Kimyou na Bouken: Ougon no Kaze'
p102
tp103
a(g74
S'SSSS.Gridman'
p104
tp105
a(S'35835'
p106
S'RErideD: Tokigoe no Derrida'
p107
tp108
a(g37
S'Zombieland Saga'
p109
tp110
a(S'37447'
p111
S'Karakuri Circus'
p112
tp113
a(g3
S'Seishun Buta Yarou wa Bunny Girl Senpai no Yume wo Minai'
p114
tp115
a(S'37496'
p116
S'Double Decker! Doug & Kirill'
p117
tp118
asS'MordecaiMapper'
p119
(lp120
(S'36432'
p121
S'Toaru Majutsu no Index III'
p122
tp123
a(g40
S'Golden Kamuy 2nd Season'
p124
tp125
a(g28
S'Radiant'
p126
tp127
a(g3
S'Seishun Buta Yarou wa Bunny Girl Senpai no Yume wo Minai'
p128
tp129
a(S'36317'
p130
S'Gaikotsu Shotenin Honda-san'
p131
tp132
a(g21
S'Ulysses: Jehanne Darc to Renkin no Kishi'
p133
tp134
a(S'37561'
p135
S'Akanesasu Shoujo'
p136
tp137
asS'tmesisco24'
p138
(lp139
(g40
S'Golden Kamuy 2nd Season'
p140
tp141
a(g121
S'Toaru Majutsu no Index III'
p142
tp143
a(S'37722'
p144
S'Uchi no Maid ga Uzasugiru!'
p145
tp146
a(g9
S'Tensei shitara Slime Datta Ken'
p147
tp148
a(g111
S'Karakuri Circus'
p149
tp150
a(g97
S'Ore ga Suki nano wa Imouto dakedo Imouto ja Nai'
p151
tp152
a(S'37007'
p153
S'Hinomaruzumou'
p154
tp155
asS'KingRiaz'
p156
(lp157
(g18
S'Jojo no Kimyou na Bouken: Ougon no Kaze'
p158
tp159
a(g106
S'RErideD: Tokigoe no Derrida'
p160
tp161
a(g9
S'Tensei shitara Slime Datta Ken'
p162
tp163
a(g28
S'Radiant'
p164
tp165
a(g15
S'Yagate Kimi ni Naru'
p166
tp167
a(g21
S'Ulysses: Jehanne Darc to Renkin no Kishi'
p168
tp169
a(g97
S'Ore ga Suki nano wa Imouto dakedo Imouto ja Nai'
p170
tp171
asS'laylags'
p172
(lp173
(g18
S'Jojo no Kimyou na Bouken: Ougon no Kaze'
p174
tp175
a(S'37965'
p176
S'Kaze ga Tsuyoku Fuiteiru'
p177
tp178
a(g3
S'Seishun Buta Yarou wa Bunny Girl Senpai no Yume wo Minai'
p179
tp180
a(g63
S'Sora to Umi no Aida'
p181
tp182
a(g9
S'Tensei shitara Slime Datta Ken'
p183
tp184
a(g28
S'Radiant'
p185
tp186
a(g74
S'SSSS.Gridman'
p187
tp188
asS'El-Random'
p189
(lp190
(g37
S'Zombieland Saga'
p191
tp192
a(g130
S'Gaikotsu Shotenin Honda-san'
p193
tp194
a(S'37579'
p195
S'Tonari no Kyuuketsuki-san'
p196
tp197
a(g40
S'Golden Kamuy 2nd Season'
p198
tp199
a(g18
S'Jojo no Kimyou na Bouken: Ougon no Kaze'
p200
tp201
a(g153
S'Hinomaruzumou'
p202
tp203
a(S'36653'
p204
S'Tsurune: Kazemai Koukou Kyuudoubu'
p205
tp206
asS'Aproudweeb'
p207
(lp208
(g18
S'Jojo no Kimyou na Bouken: Ougon no Kaze'
p209
tp210
a(g153
S'Hinomaruzumou'
p211
tp212
a(g6
S'Irozuku Sekai no Ashita kara'
p213
tp214
a(g21
S'Ulysses: Jehanne Darc to Renkin no Kishi'
p215
tp216
a(g3
S'Seishun Buta Yarou wa Bunny Girl Senpai no Yume wo Minai'
p217
tp218
a(g9
S'Tensei shitara Slime Datta Ken'
p219
tp220
a(g15
S'Yagate Kimi ni Naru'
p221
tp222
asS'SkyDrop'
p223
(lp224
(g18
S'Jojo no Kimyou na Bouken: Ougon no Kaze'
p225
tp226
a(g9
S'Tensei shitara Slime Datta Ken'
p227
tp228
a(g74
S'SSSS.Gridman'
p229
tp230
a(g37
S'Zombieland Saga'
p231
tp232
a(g3
S'Seishun Buta Yarou wa Bunny Girl Senpai no Yume wo Minai'
p233
tp234
a(g97
S'Ore ga Suki nano wa Imouto dakedo Imouto ja Nai'
p235
tp236
a(S'37221'
p237
S'Release the Spyce'
p238
tp239
asS'CousCousBun'
p240
(lp241
(g121
S'Toaru Majutsu no Index III'
p242
tp243
a(g3
S'Seishun Buta Yarou wa Bunny Girl Senpai no Yume wo Minai'
p244
tp245
a(g40
S'Golden Kamuy 2nd Season'
p246
tp247
a(g176
S'Kaze ga Tsuyoku Fuiteiru'
p248
tp249
a(g204
S'Tsurune: Kazemai Koukou Kyuudoubu'
p250
tp251
a(g111
S'Karakuri Circus'
p252
tp253
a(g6
S'Irozuku Sekai no Ashita kara'
p254
tp255
asS'close012'
p256
(lp257
(g6
S'Irozuku Sekai no Ashita kara'
p258
tp259
a(g3
S'Seishun Buta Yarou wa Bunny Girl Senpai no Yume wo Minai'
p260
tp261
a(S'37490'
p262
S'Gyakuten Saiban: Sono "Shinjitsu", Igi Ari! Season 2'
p263
tp264
a(g12
S'Kishuku Gakkou no Juliet'
p265
tp266
a(g97
S'Ore ga Suki nano wa Imouto dakedo Imouto ja Nai'
p267
tp268
a(S'37823'
p269
S'Conception'
p270
tp271
a(g51
S'Himote House'
p272
tp273
asS'Stark700'
p274
(lp275
(g9
S'Tensei shitara Slime Datta Ken'
p276
tp277
a(g121
S'Toaru Majutsu no Index III'
p278
tp279
a(g3
S'Seishun Buta Yarou wa Bunny Girl Senpai no Yume wo Minai'
p280
tp281
a(g12
S'Kishuku Gakkou no Juliet'
p282
tp283
a(g21
S'Ulysses: Jehanne Darc to Renkin no Kishi'
p284
tp285
a(g74
S'SSSS.Gridman'
p286
tp287
a(g15
S'Yagate Kimi ni Naru'
p288
tp289
asS'AsharaOnly'
p290
(lp291
(g12
S'Kishuku Gakkou no Juliet'
p292
tp293
a(g3
S'Seishun Buta Yarou wa Bunny Girl Senpai no Yume wo Minai'
p294
tp295
a(g37
S'Zombieland Saga'
p296
tp297
a(g15
S'Yagate Kimi ni Naru'
p298
tp299
a(g18
S'Jojo no Kimyou na Bouken: Ougon no Kaze'
p300
tp301
a(g9
S'Tensei shitara Slime Datta Ken'
p302
tp303
a(g40
S'Golden Kamuy 2nd Season'
p304
tp305
asS'Jhiday'
p306
(lp307
(g135
S'Akanesasu Shoujo'
p308
tp309
a(g37
S'Zombieland Saga'
p310
tp311
a(g18
S'Jojo no Kimyou na Bouken: Ougon no Kaze'
p312
tp313
a(g9
S'Tensei shitara Slime Datta Ken'
p314
tp315
a(g3
S'Seishun Buta Yarou wa Bunny Girl Senpai no Yume wo Minai'
p316
tp317
a(g74
S'SSSS.Gridman'
p318
tp319
a(g204
S'Tsurune: Kazemai Koukou Kyuudoubu'
p320
tp321
asS'HapHazrD'
p322
(lp323
(g3
S'Seishun Buta Yarou wa Bunny Girl Senpai no Yume wo Minai'
p324
tp325
a(g6
S'Irozuku Sekai no Ashita kara'
p326
tp327
a(g9
S'Tensei shitara Slime Datta Ken'
p328
tp329
a(g12
S'Kishuku Gakkou no Juliet'
p330
tp331
a(g121
S'Toaru Majutsu no Index III'
p332
tp333
a(g144
S'Uchi no Maid ga Uzasugiru!'
p334
tp335
a(g135
S'Akanesasu Shoujo'
p336
tp337
asS'ToastyOtaku'
p338
(lp339
(g37
S'Zombieland Saga'
p340
tp341
a(g3
S'Seishun Buta Yarou wa Bunny Girl Senpai no Yume wo Minai'
p342
tp343
a(g51
S'Himote House'
p344
tp345
a(g12
S'Kishuku Gakkou no Juliet'
p346
tp347
a(g237
S'Release the Spyce'
p348
tp349
a(g121
S'Toaru Majutsu no Index III'
p350
tp351
a(g269
S'Conception'
p352
tp353
asS'Numi'
p354
(lp355
(g6
S'Irozuku Sekai no Ashita kara'
p356
tp357
a(g12
S'Kishuku Gakkou no Juliet'
p358
tp359
a(g3
S'Seishun Buta Yarou wa Bunny Girl Senpai no Yume wo Minai'
p360
tp361
a(g9
S'Tensei shitara Slime Datta Ken'
p362
tp363
a(g121
S'Toaru Majutsu no Index III'
p364
tp365
a(g15
S'Yagate Kimi ni Naru'
p366
tp367
a(g37
S'Zombieland Saga'
p368
tp369
asS'Scavendgarr'
p370
(lp371
(g18
S'Jojo no Kimyou na Bouken: Ougon no Kaze'
p372
tp373
a(g269
S'Conception'
p374
tp375
a(g40
S'Golden Kamuy 2nd Season'
p376
tp377
a(g3
S'Seishun Buta Yarou wa Bunny Girl Senpai no Yume wo Minai'
p378
tp379
a(g9
S'Tensei shitara Slime Datta Ken'
p380
tp381
a(g97
S'Ore ga Suki nano wa Imouto dakedo Imouto ja Nai'
p382
tp383
a(S'36037'
p384
S'Senran Kagura: Shinovi Master - Tokyo Youma-hen'
p385
tp386
asS'Naruleach'
p387
(lp388
(g9
S'Tensei shitara Slime Datta Ken'
p389
tp390
a(g176
S'Kaze ga Tsuyoku Fuiteiru'
p391
tp392
a(g3
S'Seishun Buta Yarou wa Bunny Girl Senpai no Yume wo Minai'
p393
tp394
a(g121
S'Toaru Majutsu no Index III'
p395
tp396
a(g6
S'Irozuku Sekai no Ashita kara'
p397
tp398
a(g97
S'Ore ga Suki nano wa Imouto dakedo Imouto ja Nai'
p399
tp400
a(g204
S'Tsurune: Kazemai Koukou Kyuudoubu'
p401
tp402
asS'BakuKemono'
p403
(lp404
(g37
S'Zombieland Saga'
p405
tp406
a(g60
S'Bakumatsu'
p407
tp408
a(g135
S'Akanesasu Shoujo'
p409
tp410
a(g269
S'Conception'
p411
tp412
a(g45
S'Hangyakusei Million Arthur'
p413
tp414
a(g6
S'Irozuku Sekai no Ashita kara'
p415
tp416
a(g116
S'Double Decker! Doug & Kirill'
p417
tp418
asS'peroroncin0'
p419
(lp420
(g18
S'Jojo no Kimyou na Bouken: Ougon no Kaze'
p421
tp422
a(g6
S'Irozuku Sekai no Ashita kara'
p423
tp424
a(g106
S'RErideD: Tokigoe no Derrida'
p425
tp426
a(g204
S'Tsurune: Kazemai Koukou Kyuudoubu'
p427
tp428
a(g37
S'Zombieland Saga'
p429
tp430
a(g9
S'Tensei shitara Slime Datta Ken'
p431
tp432
a(g269
S'Conception'
p433
tp434
asS'TheTsunami'
p435
(lp436
(g18
S'Jojo no Kimyou na Bouken: Ougon no Kaze'
p437
tp438
a(g6
S'Irozuku Sekai no Ashita kara'
p439
tp440
a(g9
S'Tensei shitara Slime Datta Ken'
p441
tp442
a(g3
S'Seishun Buta Yarou wa Bunny Girl Senpai no Yume wo Minai'
p443
tp444
a(g28
S'Radiant'
p445
tp446
a(g204
S'Tsurune: Kazemai Koukou Kyuudoubu'
p447
tp448
a(g12
S'Kishuku Gakkou no Juliet'
p449
tp450
asS'NeoAnkara'
p451
(lp452
(g121
S'Toaru Majutsu no Index III'
p453
tp454
a(g3
S'Seishun Buta Yarou wa Bunny Girl Senpai no Yume wo Minai'
p455
tp456
a(g12
S'Kishuku Gakkou no Juliet'
p457
tp458
a(g9
S'Tensei shitara Slime Datta Ken'
p459
tp460
a(g6
S'Irozuku Sekai no Ashita kara'
p461
tp462
a(g37
S'Zombieland Saga'
p463
tp464
a(g15
S'Yagate Kimi ni Naru'
p465
tp466
asS'JessicaAFM'
p467
(lp468
(g6
S'Irozuku Sekai no Ashita kara'
p469
tp470
a(g3
S'Seishun Buta Yarou wa Bunny Girl Senpai no Yume wo Minai'
p471
tp472
a(g9
S'Tensei shitara Slime Datta Ken'
p473
tp474
a(g15
S'Yagate Kimi ni Naru'
p475
tp476
a(g37
S'Zombieland Saga'
p477
tp478
a(g12
S'Kishuku Gakkou no Juliet'
p479
tp480
a(g204
S'Tsurune: Kazemai Koukou Kyuudoubu'
p481
tp482
asS'Londras_'
p483
(lp484
(g6
S'Irozuku Sekai no Ashita kara'
p485
tp486
a(g15
S'Yagate Kimi ni Naru'
p487
tp488
a(g3
S'Seishun Buta Yarou wa Bunny Girl Senpai no Yume wo Minai'
p489
tp490
a(g9
S'Tensei shitara Slime Datta Ken'
p491
tp492
a(g18
S'Jojo no Kimyou na Bouken: Ougon no Kaze'
p493
tp494
a(g12
S'Kishuku Gakkou no Juliet'
p495
tp496
a(g37
S'Zombieland Saga'
p497
tp498
asS'snovieanime210'
p499
(lp500
(S'37206'
p501
S'Anima Yell!'
p502
tp503
a(g6
S'Irozuku Sekai no Ashita kara'
p504
tp505
a(g237
S'Release the Spyce'
p506
tp507
a(g3
S'Seishun Buta Yarou wa Bunny Girl Senpai no Yume wo Minai'
p508
tp509
a(g12
S'Kishuku Gakkou no Juliet'
p510
tp511
a(g48
S'Merc Storia: Mukiryoku no Shounen to Bin no Naka no Shoujo'
p512
tp513
a(g135
S'Akanesasu Shoujo'
p514
tp515
asS'ResKori'
p516
(lp517
(g9
S'Tensei shitara Slime Datta Ken'
p518
tp519
a(g28
S'Radiant'
p520
tp521
a(g21
S'Ulysses: Jehanne Darc to Renkin no Kishi'
p522
tp523
a(g121
S'Toaru Majutsu no Index III'
p524
tp525
a(g106
S'RErideD: Tokigoe no Derrida'
p526
tp527
a(g130
S'Gaikotsu Shotenin Honda-san'
p528
tp529
a(g204
S'Tsurune: Kazemai Koukou Kyuudoubu'
p530
tp531
asS'TriZen'
p532
(lp533
(g18
S'Jojo no Kimyou na Bouken: Ougon no Kaze'
p534
tp535
a(g9
S'Tensei shitara Slime Datta Ken'
p536
tp537
a(g74
S'SSSS.Gridman'
p538
tp539
a(g3
S'Seishun Buta Yarou wa Bunny Girl Senpai no Yume wo Minai'
p540
tp541
a(g28
S'Radiant'
p542
tp543
a(g6
S'Irozuku Sekai no Ashita kara'
p544
tp545
a(g204
S'Tsurune: Kazemai Koukou Kyuudoubu'
p546
tp547
asS'Voltilamm'
p548
(lp549
(g15
S'Yagate Kimi ni Naru'
p550
tp551
a(g237
S'Release the Spyce'
p552
tp553
a(g204
S'Tsurune: Kazemai Koukou Kyuudoubu'
p554
tp555
a(g501
S'Anima Yell!'
p556
tp557
a(g176
S'Kaze ga Tsuyoku Fuiteiru'
p558
tp559
a(g195
S'Tonari no Kyuuketsuki-san'
p560
tp561
a(g6
S'Irozuku Sekai no Ashita kara'
p562
tp563
asS'PaiYuri'
p564
(lp565
(g18
S'Jojo no Kimyou na Bouken: Ougon no Kaze'
p566
tp567
a(g262
S'Gyakuten Saiban: Sono "Shinjitsu", Igi Ari! Season 2'
p568
tp569
a(g21
S'Ulysses: Jehanne Darc to Renkin no Kishi'
p570
tp571
a(g3
S'Seishun Buta Yarou wa Bunny Girl Senpai no Yume wo Minai'
p572
tp573
a(g144
S'Uchi no Maid ga Uzasugiru!'
p574
tp575
a(g40
S'Golden Kamuy 2nd Season'
p576
tp577
a(g501
S'Anima Yell!'
p578
tp579
asS'Mills'
p580
(lp581
(g6
S'Irozuku Sekai no Ashita kara'
p582
tp583
a(g28
S'Radiant'
p584
tp585
a(g3
S'Seishun Buta Yarou wa Bunny Girl Senpai no Yume wo Minai'
p586
tp587
a(g9
S'Tensei shitara Slime Datta Ken'
p588
tp589
a(g37
S'Zombieland Saga'
p590
tp591
a(g12
S'Kishuku Gakkou no Juliet'
p592
tp593
a(g74
S'SSSS.Gridman'
p594
tp595
asS'Dessssy'
p596
(lp597
(g121
S'Toaru Majutsu no Index III'
p598
tp599
a(g3
S'Seishun Buta Yarou wa Bunny Girl Senpai no Yume wo Minai'
p600
tp601
a(g21
S'Ulysses: Jehanne Darc to Renkin no Kishi'
p602
tp603
a(g97
S'Ore ga Suki nano wa Imouto dakedo Imouto ja Nai'
p604
tp605
a(g37
S'Zombieland Saga'
p606
tp607
a(g60
S'Bakumatsu'
p608
tp609
a(g12
S'Kishuku Gakkou no Juliet'
p610
tp611
asS'Dweebenheimer'
p612
(lp613
(g9
S'Tensei shitara Slime Datta Ken'
p614
tp615
a(g3
S'Seishun Buta Yarou wa Bunny Girl Senpai no Yume wo Minai'
p616
tp617
a(g37
S'Zombieland Saga'
p618
tp619
a(g15
S'Yagate Kimi ni Naru'
p620
tp621
a(g6
S'Irozuku Sekai no Ashita kara'
p622
tp623
a(g176
S'Kaze ga Tsuyoku Fuiteiru'
p624
tp625
a(g12
S'Kishuku Gakkou no Juliet'
p626
tp627
asS'BloomingJAS'
p628
(lp629
(g121
S'Toaru Majutsu no Index III'
p630
tp631
a(g3
S'Seishun Buta Yarou wa Bunny Girl Senpai no Yume wo Minai'
p632
tp633
a(g9
S'Tensei shitara Slime Datta Ken'
p634
tp635
a(g6
S'Irozuku Sekai no Ashita kara'
p636
tp637
a(g21
S'Ulysses: Jehanne Darc to Renkin no Kishi'
p638
tp639
a(g28
S'Radiant'
p640
tp641
a(g106
S'RErideD: Tokigoe no Derrida'
p642
tp643
asS'Antagonized'
p644
(lp645
(g18
S'Jojo no Kimyou na Bouken: Ougon no Kaze'
p646
tp647
a(g3
S'Seishun Buta Yarou wa Bunny Girl Senpai no Yume wo Minai'
p648
tp649
a(g9
S'Tensei shitara Slime Datta Ken'
p650
tp651
a(g6
S'Irozuku Sekai no Ashita kara'
p652
tp653
a(g15
S'Yagate Kimi ni Naru'
p654
tp655
a(g12
S'Kishuku Gakkou no Juliet'
p656
tp657
a(g28
S'Radiant'
p658
tp659
asS'Orange'
p660
(lp661
(g18
S'Jojo no Kimyou na Bouken: Ougon no Kaze'
p662
tp663
a(g6
S'Irozuku Sekai no Ashita kara'
p664
tp665
a(g3
S'Seishun Buta Yarou wa Bunny Girl Senpai no Yume wo Minai'
p666
tp667
a(g9
S'Tensei shitara Slime Datta Ken'
p668
tp669
a(g15
S'Yagate Kimi ni Naru'
p670
tp671
a(g12
S'Kishuku Gakkou no Juliet'
p672
tp673
a(g28
S'Radiant'
p674
tp675
asS'aysn'
p676
(lp677
(g9
S'Tensei shitara Slime Datta Ken'
p678
tp679
a(g3
S'Seishun Buta Yarou wa Bunny Girl Senpai no Yume wo Minai'
p680
tp681
a(g121
S'Toaru Majutsu no Index III'
p682
tp683
a(g6
S'Irozuku Sekai no Ashita kara'
p684
tp685
a(g28
S'Radiant'
p686
tp687
a(g74
S'SSSS.Gridman'
p688
tp689
a(g12
S'Kishuku Gakkou no Juliet'
p690
tp691
asS'MFK'
p692
(lp693
(g37
S'Zombieland Saga'
p694
tp695
a(g3
S'Seishun Buta Yarou wa Bunny Girl Senpai no Yume wo Minai'
p696
tp697
a(g121
S'Toaru Majutsu no Index III'
p698
tp699
a(g6
S'Irozuku Sekai no Ashita kara'
p700
tp701
a(g28
S'Radiant'
p702
tp703
a(g9
S'Tensei shitara Slime Datta Ken'
p704
tp705
a(g15
S'Yagate Kimi ni Naru'
p706
tp707
asS'BlueNote77'
p708
(lp709
(g9
S'Tensei shitara Slime Datta Ken'
p710
tp711
a(g3
S'Seishun Buta Yarou wa Bunny Girl Senpai no Yume wo Minai'
p712
tp713
a(g28
S'Radiant'
p714
tp715
a(g12
S'Kishuku Gakkou no Juliet'
p716
tp717
a(g15
S'Yagate Kimi ni Naru'
p718
tp719
a(g135
S'Akanesasu Shoujo'
p720
tp721
a(g97
S'Ore ga Suki nano wa Imouto dakedo Imouto ja Nai'
p722
tp723
asS'DtDaniel'
p724
(lp725
(g18
S'Jojo no Kimyou na Bouken: Ougon no Kaze'
p726
tp727
a(g3
S'Seishun Buta Yarou wa Bunny Girl Senpai no Yume wo Minai'
p728
tp729
a(g6
S'Irozuku Sekai no Ashita kara'
p730
tp731
a(g15
S'Yagate Kimi ni Naru'
p732
tp733
a(g28
S'Radiant'
p734
tp735
a(g97
S'Ore ga Suki nano wa Imouto dakedo Imouto ja Nai'
p736
tp737
a(g204
S'Tsurune: Kazemai Koukou Kyuudoubu'
p738
tp739
asS'EGOIST'
p740
(lp741
(g40
S'Golden Kamuy 2nd Season'
p742
tp743
a(g28
S'Radiant'
p744
tp745
a(g18
S'Jojo no Kimyou na Bouken: Ougon no Kaze'
p746
tp747
a(g3
S'Seishun Buta Yarou wa Bunny Girl Senpai no Yume wo Minai'
p748
tp749
a(g12
S'Kishuku Gakkou no Juliet'
p750
tp751
a(g111
S'Karakuri Circus'
p752
tp753
a(g176
S'Kaze ga Tsuyoku Fuiteiru'
p754
tp755
asS'bigdud24'
p756
(lp757
(g18
S'Jojo no Kimyou na Bouken: Ougon no Kaze'
p758
tp759
a(g74
S'SSSS.Gridman'
p760
tp761
a(g9
S'Tensei shitara Slime Datta Ken'
p762
tp763
a(g37
S'Zombieland Saga'
p764
tp765
a(g6
S'Irozuku Sekai no Ashita kara'
p766
tp767
a(g40
S'Golden Kamuy 2nd Season'
p768
tp769
a(g3
S'Seishun Buta Yarou wa Bunny Girl Senpai no Yume wo Minai'
p770
tp771
asS'Ruu'
p772
(lp773
(g40
S'Golden Kamuy 2nd Season'
p774
tp775
a(g28
S'Radiant'
p776
tp777
a(g144
S'Uchi no Maid ga Uzasugiru!'
p778
tp779
a(g384
S'Senran Kagura: Shinovi Master - Tokyo Youma-hen'
p780
tp781
a(g153
S'Hinomaruzumou'
p782
tp783
a(g111
S'Karakuri Circus'
p784
tp785
a(g37
S'Zombieland Saga'
p786
tp787
asS'Azertytreza2402'
p788
(lp789
(g6
S'Irozuku Sekai no Ashita kara'
p790
tp791
a(g18
S'Jojo no Kimyou na Bouken: Ougon no Kaze'
p792
tp793
a(g3
S'Seishun Buta Yarou wa Bunny Girl Senpai no Yume wo Minai'
p794
tp795
a(g9
S'Tensei shitara Slime Datta Ken'
p796
tp797
a(g15
S'Yagate Kimi ni Naru'
p798
tp799
a(g153
S'Hinomaruzumou'
p800
tp801
a(g111
S'Karakuri Circus'
p802
tp803
asS'KuroiKikyou'
p804
(lp805
(g18
S'Jojo no Kimyou na Bouken: Ougon no Kaze'
p806
tp807
a(g60
S'Bakumatsu'
p808
tp809
a(g40
S'Golden Kamuy 2nd Season'
p810
tp811
a(g37
S'Zombieland Saga'
p812
tp813
a(g269
S'Conception'
p814
tp815
a(g51
S'Himote House'
p816
tp817
a(g153
S'Hinomaruzumou'
p818
tp819
asS'mhkr'
p820
(lp821
(g18
S'Jojo no Kimyou na Bouken: Ougon no Kaze'
p822
tp823
a(g3
S'Seishun Buta Yarou wa Bunny Girl Senpai no Yume wo Minai'
p824
tp825
a(g9
S'Tensei shitara Slime Datta Ken'
p826
tp827
a(g15
S'Yagate Kimi ni Naru'
p828
tp829
a(g12
S'Kishuku Gakkou no Juliet'
p830
tp831
a(g37
S'Zombieland Saga'
p832
tp833
a(g45
S'Hangyakusei Million Arthur'
p834
tp835
asS'grave_robber'
p836
(lp837
(g28
S'Radiant'
p838
tp839
a(g12
S'Kishuku Gakkou no Juliet'
p840
tp841
a(g6
S'Irozuku Sekai no Ashita kara'
p842
tp843
a(g9
S'Tensei shitara Slime Datta Ken'
p844
tp845
a(g3
S'Seishun Buta Yarou wa Bunny Girl Senpai no Yume wo Minai'
p846
tp847
a(g97
S'Ore ga Suki nano wa Imouto dakedo Imouto ja Nai'
p848
tp849
a(g18
S'Jojo no Kimyou na Bouken: Ougon no Kaze'
p850
tp851
asS'Xykko'
p852
(lp853
(g12
S'Kishuku Gakkou no Juliet'
p854
tp855
a(g3
S'Seishun Buta Yarou wa Bunny Girl Senpai no Yume wo Minai'
p856
tp857
a(g74
S'SSSS.Gridman'
p858
tp859
a(g6
S'Irozuku Sekai no Ashita kara'
p860
tp861
a(g9
S'Tensei shitara Slime Datta Ken'
p862
tp863
a(g18
S'Jojo no Kimyou na Bouken: Ougon no Kaze'
p864
tp865
a(g37
S'Zombieland Saga'
p866
tp867
asS'zamandzoe'
p868
(lp869
(g3
S'Seishun Buta Yarou wa Bunny Girl Senpai no Yume wo Minai'
p870
tp871
a(g97
S'Ore ga Suki nano wa Imouto dakedo Imouto ja Nai'
p872
tp873
a(g501
S'Anima Yell!'
p874
tp875
a(g15
S'Yagate Kimi ni Naru'
p876
tp877
a(g144
S'Uchi no Maid ga Uzasugiru!'
p878
tp879
a(g262
S'Gyakuten Saiban: Sono "Shinjitsu", Igi Ari! Season 2'
p880
tp881
a(g130
S'Gaikotsu Shotenin Honda-san'
p882
tp883
asS'Imbalanced'
p884
(lp885
(g40
S'Golden Kamuy 2nd Season'
p886
tp887
a(g106
S'RErideD: Tokigoe no Derrida'
p888
tp889
a(g28
S'Radiant'
p890
tp891
a(g21
S'Ulysses: Jehanne Darc to Renkin no Kishi'
p892
tp893
a(g121
S'Toaru Majutsu no Index III'
p894
tp895
a(g15
S'Yagate Kimi ni Naru'
p896
tp897
a(g6
S'Irozuku Sekai no Ashita kara'
p898
tp899
asS'Bagira20'
p900
(lp901
(g18
S'Jojo no Kimyou na Bouken: Ougon no Kaze'
p902
tp903
a(g9
S'Tensei shitara Slime Datta Ken'
p904
tp905
a(g111
S'Karakuri Circus'
p906
tp907
a(g153
S'Hinomaruzumou'
p908
tp909
a(g97
S'Ore ga Suki nano wa Imouto dakedo Imouto ja Nai'
p910
tp911
a(g15
S'Yagate Kimi ni Naru'
p912
tp913
a(S'37597'
p914
S'Dakaretai Otoko 1-i ni Odosarete Imasu.'
p915
tp916
asS'Rinarin'
p917
(lp918
(g18
S'Jojo no Kimyou na Bouken: Ougon no Kaze'
p919
tp920
a(g3
S'Seishun Buta Yarou wa Bunny Girl Senpai no Yume wo Minai'
p921
tp922
a(g6
S'Irozuku Sekai no Ashita kara'
p923
tp924
a(g12
S'Kishuku Gakkou no Juliet'
p925
tp926
a(g15
S'Yagate Kimi ni Naru'
p927
tp928
a(g204
S'Tsurune: Kazemai Koukou Kyuudoubu'
p929
tp930
a(g176
S'Kaze ga Tsuyoku Fuiteiru'
p931
tp932
asS'GrapefruitNeko'
p933
(lp934
(g60
S'Bakumatsu'
p935
tp936
a(g63
S'Sora to Umi no Aida'
p937
tp938
a(g9
S'Tensei shitara Slime Datta Ken'
p939
tp940
a(g121
S'Toaru Majutsu no Index III'
p941
tp942
a(g37
S'Zombieland Saga'
p943
tp944
a(g45
S'Hangyakusei Million Arthur'
p945
tp946
a(g204
S'Tsurune: Kazemai Koukou Kyuudoubu'
p947
tp948
asS'Tyrel'
p949
(lp950
(g121
S'Toaru Majutsu no Index III'
p951
tp952
a(g3
S'Seishun Buta Yarou wa Bunny Girl Senpai no Yume wo Minai'
p953
tp954
a(g9
S'Tensei shitara Slime Datta Ken'
p955
tp956
a(g6
S'Irozuku Sekai no Ashita kara'
p957
tp958
a(g12
S'Kishuku Gakkou no Juliet'
p959
tp960
a(g97
S'Ore ga Suki nano wa Imouto dakedo Imouto ja Nai'
p961
tp962
a(g21
S'Ulysses: Jehanne Darc to Renkin no Kishi'
p963
tp964
asS'Nofearjay88'
p965
(lp966
(g121
S'Toaru Majutsu no Index III'
p967
tp968
a(g40
S'Golden Kamuy 2nd Season'
p969
tp970
a(g3
S'Seishun Buta Yarou wa Bunny Girl Senpai no Yume wo Minai'
p971
tp972
a(g6
S'Irozuku Sekai no Ashita kara'
p973
tp974
a(g9
S'Tensei shitara Slime Datta Ken'
p975
tp976
a(g15
S'Yagate Kimi ni Naru'
p977
tp978
a(g28
S'Radiant'
p979
tp980
asS'llevronbelac'
p981
(lp982
(g3
S'Seishun Buta Yarou wa Bunny Girl Senpai no Yume wo Minai'
p983
tp984
a(g9
S'Tensei shitara Slime Datta Ken'
p985
tp986
a(g28
S'Radiant'
p987
tp988
a(g37
S'Zombieland Saga'
p989
tp990
a(g6
S'Irozuku Sekai no Ashita kara'
p991
tp992
a(g204
S'Tsurune: Kazemai Koukou Kyuudoubu'
p993
tp994
a(g176
S'Kaze ga Tsuyoku Fuiteiru'
p995
tp996
asS'BliturawJomz'
p997
(lp998
(g121
S'Toaru Majutsu no Index III'
p999
tp1000
a(g37
S'Zombieland Saga'
p1001
tp1002
a(g144
S'Uchi no Maid ga Uzasugiru!'
p1003
tp1004
a(g3
S'Seishun Buta Yarou wa Bunny Girl Senpai no Yume wo Minai'
p1005
tp1006
a(g97
S'Ore ga Suki nano wa Imouto dakedo Imouto ja Nai'
p1007
tp1008
a(g130
S'Gaikotsu Shotenin Honda-san'
p1009
tp1010
a(g9
S'Tensei shitara Slime Datta Ken'
p1011
tp1012
asS'NMx13'
p1013
(lp1014
(g9
S'Tensei shitara Slime Datta Ken'
p1015
tp1016
a(g18
S'Jojo no Kimyou na Bouken: Ougon no Kaze'
p1017
tp1018
a(g3
S'Seishun Buta Yarou wa Bunny Girl Senpai no Yume wo Minai'
p1019
tp1020
a(g12
S'Kishuku Gakkou no Juliet'
p1021
tp1022
a(g28
S'Radiant'
p1023
tp1024
a(g37
S'Zombieland Saga'
p1025
tp1026
a(g74
S'SSSS.Gridman'
p1027
tp1028
asS'Mont_Gomery'
p1029
(lp1030
(g3
S'Seishun Buta Yarou wa Bunny Girl Senpai no Yume wo Minai'
p1031
tp1032
a(g6
S'Irozuku Sekai no Ashita kara'
p1033
tp1034
a(g121
S'Toaru Majutsu no Index III'
p1035
tp1036
a(g204
S'Tsurune: Kazemai Koukou Kyuudoubu'
p1037
tp1038
a(g21
S'Ulysses: Jehanne Darc to Renkin no Kishi'
p1039
tp1040
a(g74
S'SSSS.Gridman'
p1041
tp1042
a(g37
S'Zombieland Saga'
p1043
tp1044
asS'16jacksjon'
p1045
(lp1046
(g121
S'Toaru Majutsu no Index III'
p1047
tp1048
a(g37
S'Zombieland Saga'
p1049
tp1050
a(g3
S'Seishun Buta Yarou wa Bunny Girl Senpai no Yume wo Minai'
p1051
tp1052
a(g12
S'Kishuku Gakkou no Juliet'
p1053
tp1054
a(g28
S'Radiant'
p1055
tp1056
a(g106
S'RErideD: Tokigoe no Derrida'
p1057
tp1058
a(g97
S'Ore ga Suki nano wa Imouto dakedo Imouto ja Nai'
p1059
tp1060
asS'zal'
p1061
(lp1062
(g28
S'Radiant'
p1063
tp1064
a(g121
S'Toaru Majutsu no Index III'
p1065
tp1066
a(g9
S'Tensei shitara Slime Datta Ken'
p1067
tp1068
a(g3
S'Seishun Buta Yarou wa Bunny Girl Senpai no Yume wo Minai'
p1069
tp1070
a(g12
S'Kishuku Gakkou no Juliet'
p1071
tp1072
a(g40
S'Golden Kamuy 2nd Season'
p1073
tp1074
a(g204
S'Tsurune: Kazemai Koukou Kyuudoubu'
p1075
tp1076
asS'Kineta'
p1077
(lp1078
(g18
S'Jojo no Kimyou na Bouken: Ougon no Kaze'
p1079
tp1080
a(g9
S'Tensei shitara Slime Datta Ken'
p1081
tp1082
a(g3
S'Seishun Buta Yarou wa Bunny Girl Senpai no Yume wo Minai'
p1083
tp1084
a(g37
S'Zombieland Saga'
p1085
tp1086
a(g6
S'Irozuku Sekai no Ashita kara'
p1087
tp1088
a(g12
S'Kishuku Gakkou no Juliet'
p1089
tp1090
a(g28
S'Radiant'
p1091
tp1092
asS'Bongo9911'
p1093
(lp1094
(g18
S'Jojo no Kimyou na Bouken: Ougon no Kaze'
p1095
tp1096
a(g40
S'Golden Kamuy 2nd Season'
p1097
tp1098
a(g74
S'SSSS.Gridman'
p1099
tp1100
a(g116
S'Double Decker! Doug & Kirill'
p1101
tp1102
a(g269
S'Conception'
p1103
tp1104
a(g37
S'Zombieland Saga'
p1105
tp1106
a(g28
S'Radiant'
p1107
tp1108
asS'Tsumayouji'
p1109
(lp1110
(g9
S'Tensei shitara Slime Datta Ken'
p1111
tp1112
a(g3
S'Seishun Buta Yarou wa Bunny Girl Senpai no Yume wo Minai'
p1113
tp1114
a(g15
S'Yagate Kimi ni Naru'
p1115
tp1116
a(g121
S'Toaru Majutsu no Index III'
p1117
tp1118
a(g37
S'Zombieland Saga'
p1119
tp1120
a(g12
S'Kishuku Gakkou no Juliet'
p1121
tp1122
a(g6
S'Irozuku Sekai no Ashita kara'
p1123
tp1124
asS'AnimeLuv1998'
p1125
(lp1126
(g121
S'Toaru Majutsu no Index III'
p1127
tp1128
a(g21
S'Ulysses: Jehanne Darc to Renkin no Kishi'
p1129
tp1130
a(g37
S'Zombieland Saga'
p1131
tp1132
a(g237
S'Release the Spyce'
p1133
tp1134
a(g9
S'Tensei shitara Slime Datta Ken'
p1135
tp1136
a(g135
S'Akanesasu Shoujo'
p1137
tp1138
a(g15
S'Yagate Kimi ni Naru'
p1139
tp1140
asS'Laughing_Man_01'
p1141
(lp1142
(g6
S'Irozuku Sekai no Ashita kara'
p1143
tp1144
a(g12
S'Kishuku Gakkou no Juliet'
p1145
tp1146
a(g3
S'Seishun Buta Yarou wa Bunny Girl Senpai no Yume wo Minai'
p1147
tp1148
a(g9
S'Tensei shitara Slime Datta Ken'
p1149
tp1150
a(g121
S'Toaru Majutsu no Index III'
p1151
tp1152
a(g21
S'Ulysses: Jehanne Darc to Renkin no Kishi'
p1153
tp1154
a(g15
S'Yagate Kimi ni Naru'
p1155
tp1156
asS'Quapsel'
p1157
(lp1158
(g28
S'Radiant'
p1159
tp1160
a(g9
S'Tensei shitara Slime Datta Ken'
p1161
tp1162
a(g3
S'Seishun Buta Yarou wa Bunny Girl Senpai no Yume wo Minai'
p1163
tp1164
a(g12
S'Kishuku Gakkou no Juliet'
p1165
tp1166
a(g37
S'Zombieland Saga'
p1167
tp1168
a(g6
S'Irozuku Sekai no Ashita kara'
p1169
tp1170
a(g97
S'Ore ga Suki nano wa Imouto dakedo Imouto ja Nai'
p1171
tp1172
asS'Yoshimori_168'
p1173
(lp1174
(g269
S'Conception'
p1175
tp1176
a(g40
S'Golden Kamuy 2nd Season'
p1177
tp1178
a(g153
S'Hinomaruzumou'
p1179
tp1180
a(g28
S'Radiant'
p1181
tp1182
a(g21
S'Ulysses: Jehanne Darc to Renkin no Kishi'
p1183
tp1184
a(g60
S'Bakumatsu'
p1185
tp1186
a(g9
S'Tensei shitara Slime Datta Ken'
p1187
tp1188
asS'Congress'
p1189
(lp1190
(g135
S'Akanesasu Shoujo'
p1191
tp1192
a(g501
S'Anima Yell!'
p1193
tp1194
a(g60
S'Bakumatsu'
p1195
tp1196
a(S'37716'
p1197
S'Beelzebub-jou no Okinimesu mama.'
p1198
tp1199
a(g269
S'Conception'
p1200
tp1201
a(g914
S'Dakaretai Otoko 1-i ni Odosarete Imasu.'
p1202
tp1203
a(g116
S'Double Decker! Doug & Kirill'
p1204
tp1205
asS'Swtos'
p1206
(lp1207
(g6
S'Irozuku Sekai no Ashita kara'
p1208
tp1209
a(g12
S'Kishuku Gakkou no Juliet'
p1210
tp1211
a(g3
S'Seishun Buta Yarou wa Bunny Girl Senpai no Yume wo Minai'
p1212
tp1213
a(g9
S'Tensei shitara Slime Datta Ken'
p1214
tp1215
a(g121
S'Toaru Majutsu no Index III'
p1216
tp1217
a(g74
S'SSSS.Gridman'
p1218
tp1219
a(g15
S'Yagate Kimi ni Naru'
p1220
tp1221
asS'LunyRem'
p1222
(lp1223
(g9
S'Tensei shitara Slime Datta Ken'
p1224
tp1225
a(g3
S'Seishun Buta Yarou wa Bunny Girl Senpai no Yume wo Minai'
p1226
tp1227
a(g6
S'Irozuku Sekai no Ashita kara'
p1228
tp1229
a(g12
S'Kishuku Gakkou no Juliet'
p1230
tp1231
a(g18
S'Jojo no Kimyou na Bouken: Ougon no Kaze'
p1232
tp1233
a(g97
S'Ore ga Suki nano wa Imouto dakedo Imouto ja Nai'
p1234
tp1235
a(g28
S'Radiant'
p1236
tp1237
asS'TetsuyaNEETO'
p1238
(lp1239
(g6
S'Irozuku Sekai no Ashita kara'
p1240
tp1241
a(g3
S'Seishun Buta Yarou wa Bunny Girl Senpai no Yume wo Minai'
p1242
tp1243
a(g74
S'SSSS.Gridman'
p1244
tp1245
a(g9
S'Tensei shitara Slime Datta Ken'
p1246
tp1247
a(g21
S'Ulysses: Jehanne Darc to Renkin no Kishi'
p1248
tp1249
a(g18
S'Jojo no Kimyou na Bouken: Ougon no Kaze'
p1250
tp1251
a(g111
S'Karakuri Circus'
p1252
tp1253
asS'iridi'
p1254
(lp1255
(g28
S'Radiant'
p1256
tp1257
a(g106
S'RErideD: Tokigoe no Derrida'
p1258
tp1259
a(g269
S'Conception'
p1260
tp1261
a(g9
S'Tensei shitara Slime Datta Ken'
p1262
tp1263
a(g1197
S'Beelzebub-jou no Okinimesu mama.'
p1264
tp1265
a(g121
S'Toaru Majutsu no Index III'
p1266
tp1267
a(g6
S'Irozuku Sekai no Ashita kara'
p1268
tp1269
asS'MeePeR'
p1270
(lp1271
(g40
S'Golden Kamuy 2nd Season'
p1272
tp1273
a(g3
S'Seishun Buta Yarou wa Bunny Girl Senpai no Yume wo Minai'
p1274
tp1275
a(g6
S'Irozuku Sekai no Ashita kara'
p1276
tp1277
a(g9
S'Tensei shitara Slime Datta Ken'
p1278
tp1279
a(g28
S'Radiant'
p1280
tp1281
a(g204
S'Tsurune: Kazemai Koukou Kyuudoubu'
p1282
tp1283
a(g176
S'Kaze ga Tsuyoku Fuiteiru'
p1284
tp1285
asS'VanishingKira'
p1286
(lp1287
(g121
S'Toaru Majutsu no Index III'
p1288
tp1289
a(g3
S'Seishun Buta Yarou wa Bunny Girl Senpai no Yume wo Minai'
p1290
tp1291
a(g9
S'Tensei shitara Slime Datta Ken'
p1292
tp1293
a(g15
S'Yagate Kimi ni Naru'
p1294
tp1295
a(g204
S'Tsurune: Kazemai Koukou Kyuudoubu'
p1296
tp1297
a(g40
S'Golden Kamuy 2nd Season'
p1298
tp1299
a(g237
S'Release the Spyce'
p1300
tp1301
asS'Nathan3010'
p1302
(lp1303
(g48
S'Merc Storia: Mukiryoku no Shounen to Bin no Naka no Shoujo'
p1304
tp1305
a(g1197
S'Beelzebub-jou no Okinimesu mama.'
p1306
tp1307
a(g176
S'Kaze ga Tsuyoku Fuiteiru'
p1308
tp1309
a(g97
S'Ore ga Suki nano wa Imouto dakedo Imouto ja Nai'
p1310
tp1311
a(g12
S'Kishuku Gakkou no Juliet'
p1312
tp1313
a(g28
S'Radiant'
p1314
tp1315
a(g6
S'Irozuku Sekai no Ashita kara'
p1316
tp1317
asS'Rokounji_Shouji'
p1318
(lp1319
(g121
S'Toaru Majutsu no Index III'
p1320
tp1321
a(g37
S'Zombieland Saga'
p1322
tp1323
a(g204
S'Tsurune: Kazemai Koukou Kyuudoubu'
p1324
tp1325
a(g15
S'Yagate Kimi ni Naru'
p1326
tp1327
a(g237
S'Release the Spyce'
p1328
tp1329
a(g501
S'Anima Yell!'
p1330
tp1331
a(g3
S'Seishun Buta Yarou wa Bunny Girl Senpai no Yume wo Minai'
p1332
tp1333
asS'xspookydarknessx'
p1334
(lp1335
(g121
S'Toaru Majutsu no Index III'
p1336
tp1337
a(g6
S'Irozuku Sekai no Ashita kara'
p1338
tp1339
a(g12
S'Kishuku Gakkou no Juliet'
p1340
tp1341
a(g3
S'Seishun Buta Yarou wa Bunny Girl Senpai no Yume wo Minai'
p1342
tp1343
a(g9
S'Tensei shitara Slime Datta Ken'
p1344
tp1345
a(g15
S'Yagate Kimi ni Naru'
p1346
tp1347
a(g37
S'Zombieland Saga'
p1348
tp1349
asS'Asert333'
p1350
(lp1351
(g18
S'Jojo no Kimyou na Bouken: Ougon no Kaze'
p1352
tp1353
a(g176
S'Kaze ga Tsuyoku Fuiteiru'
p1354
tp1355
a(g9
S'Tensei shitara Slime Datta Ken'
p1356
tp1357
a(g28
S'Radiant'
p1358
tp1359
a(g40
S'Golden Kamuy 2nd Season'
p1360
tp1361
a(g111
S'Karakuri Circus'
p1362
tp1363
a(g204
S'Tsurune: Kazemai Koukou Kyuudoubu'
p1364
tp1365
asS'Tokoya'
p1366
(lp1367
(g18
S'Jojo no Kimyou na Bouken: Ougon no Kaze'
p1368
tp1369
a(g74
S'SSSS.Gridman'
p1370
tp1371
a(g28
S'Radiant'
p1372
tp1373
a(g9
S'Tensei shitara Slime Datta Ken'
p1374
tp1375
a(g6
S'Irozuku Sekai no Ashita kara'
p1376
tp1377
a(g153
S'Hinomaruzumou'
p1378
tp1379
a(g3
S'Seishun Buta Yarou wa Bunny Girl Senpai no Yume wo Minai'
p1380
tp1381
asS'Hamody_Asgail'
p1382
(lp1383
(g18
S'Jojo no Kimyou na Bouken: Ougon no Kaze'
p1384
tp1385
a(g40
S'Golden Kamuy 2nd Season'
p1386
tp1387
a(g111
S'Karakuri Circus'
p1388
tp1389
a(g74
S'SSSS.Gridman'
p1390
tp1391
a(g9
S'Tensei shitara Slime Datta Ken'
p1392
tp1393
a(g153
S'Hinomaruzumou'
p1394
tp1395
a(g116
S'Double Decker! Doug & Kirill'
p1396
tp1397
asS'ZafkielRays'
p1398
(lp1399
(g121
S'Toaru Majutsu no Index III'
p1400
tp1401
a(g9
S'Tensei shitara Slime Datta Ken'
p1402
tp1403
a(g40
S'Golden Kamuy 2nd Season'
p1404
tp1405
a(g6
S'Irozuku Sekai no Ashita kara'
p1406
tp1407
a(g3
S'Seishun Buta Yarou wa Bunny Girl Senpai no Yume wo Minai'
p1408
tp1409
a(g37
S'Zombieland Saga'
p1410
tp1411
a(g12
S'Kishuku Gakkou no Juliet'
p1412
tp1413
asS'SirPenguinton'
p1414
(lp1415
(g37
S'Zombieland Saga'
p1416
tp1417
a(g9
S'Tensei shitara Slime Datta Ken'
p1418
tp1419
a(g40
S'Golden Kamuy 2nd Season'
p1420
tp1421
a(g18
S'Jojo no Kimyou na Bouken: Ougon no Kaze'
p1422
tp1423
a(g6
S'Irozuku Sekai no Ashita kara'
p1424
tp1425
a(g12
S'Kishuku Gakkou no Juliet'
p1426
tp1427
a(g28
S'Radiant'
p1428
tp1429
asS'NTAD'
p1430
(lp1431
(g121
S'Toaru Majutsu no Index III'
p1432
tp1433
a(g9
S'Tensei shitara Slime Datta Ken'
p1434
tp1435
a(g6
S'Irozuku Sekai no Ashita kara'
p1436
tp1437
a(g3
S'Seishun Buta Yarou wa Bunny Girl Senpai no Yume wo Minai'
p1438
tp1439
a(g12
S'Kishuku Gakkou no Juliet'
p1440
tp1441
a(g97
S'Ore ga Suki nano wa Imouto dakedo Imouto ja Nai'
p1442
tp1443
a(g15
S'Yagate Kimi ni Naru'
p1444
tp1445
asS'Luna'
p1446
(lp1447
(g3
S'Seishun Buta Yarou wa Bunny Girl Senpai no Yume wo Minai'
p1448
tp1449
a(g12
S'Kishuku Gakkou no Juliet'
p1450
tp1451
a(g6
S'Irozuku Sekai no Ashita kara'
p1452
tp1453
a(g9
S'Tensei shitara Slime Datta Ken'
p1454
tp1455
a(g28
S'Radiant'
p1456
tp1457
a(g18
S'Jojo no Kimyou na Bouken: Ougon no Kaze'
p1458
tp1459
a(g97
S'Ore ga Suki nano wa Imouto dakedo Imouto ja Nai'
p1460
tp1461
asS'xlolHoro'
p1462
(lp1463
(g3
S'Seishun Buta Yarou wa Bunny Girl Senpai no Yume wo Minai'
p1464
tp1465
a(g6
S'Irozuku Sekai no Ashita kara'
p1466
tp1467
a(g9
S'Tensei shitara Slime Datta Ken'
p1468
tp1469
a(g12
S'Kishuku Gakkou no Juliet'
p1470
tp1471
a(g15
S'Yagate Kimi ni Naru'
p1472
tp1473
a(g37
S'Zombieland Saga'
p1474
tp1475
a(g97
S'Ore ga Suki nano wa Imouto dakedo Imouto ja Nai'
p1476
tp1477
asS'_Ataku_'
p1478
(lp1479
(g121
S'Toaru Majutsu no Index III'
p1480
tp1481
a(g3
S'Seishun Buta Yarou wa Bunny Girl Senpai no Yume wo Minai'
p1482
tp1483
a(g6
S'Irozuku Sekai no Ashita kara'
p1484
tp1485
a(g9
S'Tensei shitara Slime Datta Ken'
p1486
tp1487
a(g12
S'Kishuku Gakkou no Juliet'
p1488
tp1489
a(g15
S'Yagate Kimi ni Naru'
p1490
tp1491
a(g28
S'Radiant'
p1492
tp1493
asS'Ketacc123'
p1494
(lp1495
(g153
S'Hinomaruzumou'
p1496
tp1497
a(g176
S'Kaze ga Tsuyoku Fuiteiru'
p1498
tp1499
a(g37
S'Zombieland Saga'
p1500
tp1501
a(g111
S'Karakuri Circus'
p1502
tp1503
a(g97
S'Ore ga Suki nano wa Imouto dakedo Imouto ja Nai'
p1504
tp1505
a(g501
S'Anima Yell!'
p1506
tp1507
a(g204
S'Tsurune: Kazemai Koukou Kyuudoubu'
p1508
tp1509
asS'RwadaMan'
p1510
(lp1511
(g18
S'Jojo no Kimyou na Bouken: Ougon no Kaze'
p1512
tp1513
a(g111
S'Karakuri Circus'
p1514
tp1515
a(g28
S'Radiant'
p1516
tp1517
a(g37
S'Zombieland Saga'
p1518
tp1519
a(g153
S'Hinomaruzumou'
p1520
tp1521
a(g135
S'Akanesasu Shoujo'
p1522
tp1523
a(g106
S'RErideD: Tokigoe no Derrida'
p1524
tp1525
asS'steelbound'
p1526
(lp1527
(g18
S'Jojo no Kimyou na Bouken: Ougon no Kaze'
p1528
tp1529
a(g3
S'Seishun Buta Yarou wa Bunny Girl Senpai no Yume wo Minai'
p1530
tp1531
a(g6
S'Irozuku Sekai no Ashita kara'
p1532
tp1533
a(g9
S'Tensei shitara Slime Datta Ken'
p1534
tp1535
a(g37
S'Zombieland Saga'
p1536
tp1537
a(g15
S'Yagate Kimi ni Naru'
p1538
tp1539
a(g74
S'SSSS.Gridman'
p1540
tp1541
asS'Aemnesias'
p1542
(lp1543
(g3
S'Seishun Buta Yarou wa Bunny Girl Senpai no Yume wo Minai'
p1544
tp1545
a(g6
S'Irozuku Sekai no Ashita kara'
p1546
tp1547
a(g9
S'Tensei shitara Slime Datta Ken'
p1548
tp1549
a(g37
S'Zombieland Saga'
p1550
tp1551
a(g28
S'Radiant'
p1552
tp1553
a(g18
S'Jojo no Kimyou na Bouken: Ougon no Kaze'
p1554
tp1555
a(g204
S'Tsurune: Kazemai Koukou Kyuudoubu'
p1556
tp1557
asS'iQGreygnarl'
p1558
(lp1559
(g121
S'Toaru Majutsu no Index III'
p1560
tp1561
a(g21
S'Ulysses: Jehanne Darc to Renkin no Kishi'
p1562
tp1563
a(g6
S'Irozuku Sekai no Ashita kara'
p1564
tp1565
a(g9
S'Tensei shitara Slime Datta Ken'
p1566
tp1567
a(g3
S'Seishun Buta Yarou wa Bunny Girl Senpai no Yume wo Minai'
p1568
tp1569
a(g15
S'Yagate Kimi ni Naru'
p1570
tp1571
a(g12
S'Kishuku Gakkou no Juliet'
p1572
tp1573
asS'zoren13'
p1574
(lp1575
(g9
S'Tensei shitara Slime Datta Ken'
p1576
tp1577
a(g3
S'Seishun Buta Yarou wa Bunny Girl Senpai no Yume wo Minai'
p1578
tp1579
a(g15
S'Yagate Kimi ni Naru'
p1580
tp1581
a(g6
S'Irozuku Sekai no Ashita kara'
p1582
tp1583
a(g121
S'Toaru Majutsu no Index III'
p1584
tp1585
a(g12
S'Kishuku Gakkou no Juliet'
p1586
tp1587
a(g21
S'Ulysses: Jehanne Darc to Renkin no Kishi'
p1588
tp1589
asS'MADS11'
p1590
(lp1591
(g18
S'Jojo no Kimyou na Bouken: Ougon no Kaze'
p1592
tp1593
a(g3
S'Seishun Buta Yarou wa Bunny Girl Senpai no Yume wo Minai'
p1594
tp1595
a(g176
S'Kaze ga Tsuyoku Fuiteiru'
p1596
tp1597
a(g153
S'Hinomaruzumou'
p1598
tp1599
a(g9
S'Tensei shitara Slime Datta Ken'
p1600
tp1601
a(g130
S'Gaikotsu Shotenin Honda-san'
p1602
tp1603
a(g97
S'Ore ga Suki nano wa Imouto dakedo Imouto ja Nai'
p1604
tp1605
asS'Mike4992'
p1606
(lp1607
(g18
S'Jojo no Kimyou na Bouken: Ougon no Kaze'
p1608
tp1609
a(g37
S'Zombieland Saga'
p1610
tp1611
a(g135
S'Akanesasu Shoujo'
p1612
tp1613
a(g111
S'Karakuri Circus'
p1614
tp1615
a(g501
S'Anima Yell!'
p1616
tp1617
a(g60
S'Bakumatsu'
p1618
tp1619
a(g153
S'Hinomaruzumou'
p1620
tp1621
asS'Niveen_Sleem'
p1622
(lp1623
(g6
S'Irozuku Sekai no Ashita kara'
p1624
tp1625
a(g21
S'Ulysses: Jehanne Darc to Renkin no Kishi'
p1626
tp1627
a(g40
S'Golden Kamuy 2nd Season'
p1628
tp1629
a(g237
S'Release the Spyce'
p1630
tp1631
a(g195
S'Tonari no Kyuuketsuki-san'
p1632
tp1633
a(g54
S'Gakuen Basara'
p1634
tp1635
a(g111
S'Karakuri Circus'
p1636
tp1637
asS'Paulo27'
p1638
(lp1639
(g9
S'Tensei shitara Slime Datta Ken'
p1640
tp1641
a(g121
S'Toaru Majutsu no Index III'
p1642
tp1643
a(g3
S'Seishun Buta Yarou wa Bunny Girl Senpai no Yume wo Minai'
p1644
tp1645
a(g37
S'Zombieland Saga'
p1646
tp1647
a(g6
S'Irozuku Sekai no Ashita kara'
p1648
tp1649
a(g28
S'Radiant'
p1650
tp1651
a(g97
S'Ore ga Suki nano wa Imouto dakedo Imouto ja Nai'
p1652
tp1653
asS'yurkin'
p1654
(lp1655
(g6
S'Irozuku Sekai no Ashita kara'
p1656
tp1657
a(g176
S'Kaze ga Tsuyoku Fuiteiru'
p1658
tp1659
a(g9
S'Tensei shitara Slime Datta Ken'
p1660
tp1661
a(g3
S'Seishun Buta Yarou wa Bunny Girl Senpai no Yume wo Minai'
p1662
tp1663
a(g37
S'Zombieland Saga'
p1664
tp1665
a(g116
S'Double Decker! Doug & Kirill'
p1666
tp1667
a(g74
S'SSSS.Gridman'
p1668
tp1669
asS'seanwoo19'
p1670
(lp1671
(g18
S'Jojo no Kimyou na Bouken: Ougon no Kaze'
p1672
tp1673
a(g3
S'Seishun Buta Yarou wa Bunny Girl Senpai no Yume wo Minai'
p1674
tp1675
a(g6
S'Irozuku Sekai no Ashita kara'
p1676
tp1677
a(g9
S'Tensei shitara Slime Datta Ken'
p1678
tp1679
a(g28
S'Radiant'
p1680
tp1681
a(g204
S'Tsurune: Kazemai Koukou Kyuudoubu'
p1682
tp1683
a(g176
S'Kaze ga Tsuyoku Fuiteiru'
p1684
tp1685
asS'AlexTheRiot'
p1686
(lp1687
(g18
S'Jojo no Kimyou na Bouken: Ougon no Kaze'
p1688
tp1689
a(g28
S'Radiant'
p1690
tp1691
a(g3
S'Seishun Buta Yarou wa Bunny Girl Senpai no Yume wo Minai'
p1692
tp1693
a(g6
S'Irozuku Sekai no Ashita kara'
p1694
tp1695
a(g9
S'Tensei shitara Slime Datta Ken'
p1696
tp1697
a(g74
S'SSSS.Gridman'
p1698
tp1699
a(g37
S'Zombieland Saga'
p1700
tp1701
asS'MozillaFennekin'
p1702
(lp1703
(g18
S'Jojo no Kimyou na Bouken: Ougon no Kaze'
p1704
tp1705
a(g3
S'Seishun Buta Yarou wa Bunny Girl Senpai no Yume wo Minai'
p1706
tp1707
a(g9
S'Tensei shitara Slime Datta Ken'
p1708
tp1709
a(g15
S'Yagate Kimi ni Naru'
p1710
tp1711
a(g28
S'Radiant'
p1712
tp1713
a(g37
S'Zombieland Saga'
p1714
tp1715
a(g6
S'Irozuku Sekai no Ashita kara'
p1716
tp1717
asS'belatkuro'
p1718
(lp1719
(g121
S'Toaru Majutsu no Index III'
p1720
tp1721
a(g9
S'Tensei shitara Slime Datta Ken'
p1722
tp1723
a(g12
S'Kishuku Gakkou no Juliet'
p1724
tp1725
a(g3
S'Seishun Buta Yarou wa Bunny Girl Senpai no Yume wo Minai'
p1726
tp1727
a(g37
S'Zombieland Saga'
p1728
tp1729
a(g97
S'Ore ga Suki nano wa Imouto dakedo Imouto ja Nai'
p1730
tp1731
a(g45
S'Hangyakusei Million Arthur'
p1732
tp1733
asS'5Sunstorm'
p1734
(lp1735
(g40
S'Golden Kamuy 2nd Season'
p1736
tp1737
a(g28
S'Radiant'
p1738
tp1739
a(g9
S'Tensei shitara Slime Datta Ken'
p1740
tp1741
a(g121
S'Toaru Majutsu no Index III'
p1742
tp1743
a(g6
S'Irozuku Sekai no Ashita kara'
p1744
tp1745
a(g176
S'Kaze ga Tsuyoku Fuiteiru'
p1746
tp1747
a(g3
S'Seishun Buta Yarou wa Bunny Girl Senpai no Yume wo Minai'
p1748
tp1749
asS'cavfan22'
p1750
(lp1751
(g121
S'Toaru Majutsu no Index III'
p1752
tp1753
a(g6
S'Irozuku Sekai no Ashita kara'
p1754
tp1755
a(g28
S'Radiant'
p1756
tp1757
a(g9
S'Tensei shitara Slime Datta Ken'
p1758
tp1759
a(g3
S'Seishun Buta Yarou wa Bunny Girl Senpai no Yume wo Minai'
p1760
tp1761
a(g195
S'Tonari no Kyuuketsuki-san'
p1762
tp1763
a(g204
S'Tsurune: Kazemai Koukou Kyuudoubu'
p1764
tp1765
asS'Logitechf1f4'
p1766
(lp1767
(g9
S'Tensei shitara Slime Datta Ken'
p1768
tp1769
a(g121
S'Toaru Majutsu no Index III'
p1770
tp1771
a(g3
S'Seishun Buta Yarou wa Bunny Girl Senpai no Yume wo Minai'
p1772
tp1773
a(g6
S'Irozuku Sekai no Ashita kara'
p1774
tp1775
a(g204
S'Tsurune: Kazemai Koukou Kyuudoubu'
p1776
tp1777
a(g195
S'Tonari no Kyuuketsuki-san'
p1778
tp1779
a(g12
S'Kishuku Gakkou no Juliet'
p1780
tp1781
asS'eedra'
p1782
(lp1783
(g9
S'Tensei shitara Slime Datta Ken'
p1784
tp1785
a(g3
S'Seishun Buta Yarou wa Bunny Girl Senpai no Yume wo Minai'
p1786
tp1787
a(g18
S'Jojo no Kimyou na Bouken: Ougon no Kaze'
p1788
tp1789
a(g15
S'Yagate Kimi ni Naru'
p1790
tp1791
a(g106
S'RErideD: Tokigoe no Derrida'
p1792
tp1793
a(g6
S'Irozuku Sekai no Ashita kara'
p1794
tp1795
a(g28
S'Radiant'
p1796
tp1797
asS'Sorarin'
p1798
(lp1799
(g9
S'Tensei shitara Slime Datta Ken'
p1800
tp1801
a(g121
S'Toaru Majutsu no Index III'
p1802
tp1803
a(g6
S'Irozuku Sekai no Ashita kara'
p1804
tp1805
a(g97
S'Ore ga Suki nano wa Imouto dakedo Imouto ja Nai'
p1806
tp1807
a(g15
S'Yagate Kimi ni Naru'
p1808
tp1809
a(g21
S'Ulysses: Jehanne Darc to Renkin no Kishi'
p1810
tp1811
a(g12
S'Kishuku Gakkou no Juliet'
p1812
tp1813
asS'jeffu'
p1814
(lp1815
(g40
S'Golden Kamuy 2nd Season'
p1816
tp1817
a(g28
S'Radiant'
p1818
tp1819
a(g9
S'Tensei shitara Slime Datta Ken'
p1820
tp1821
a(g111
S'Karakuri Circus'
p1822
tp1823
a(g18
S'Jojo no Kimyou na Bouken: Ougon no Kaze'
p1824
tp1825
a(g3
S'Seishun Buta Yarou wa Bunny Girl Senpai no Yume wo Minai'
p1826
tp1827
a(g153
S'Hinomaruzumou'
p1828
tp1829
asS'Raveille'
p1830
(lp1831
(g18
S'Jojo no Kimyou na Bouken: Ougon no Kaze'
p1832
tp1833
a(g6
S'Irozuku Sekai no Ashita kara'
p1834
tp1835
a(g3
S'Seishun Buta Yarou wa Bunny Girl Senpai no Yume wo Minai'
p1836
tp1837
a(g40
S'Golden Kamuy 2nd Season'
p1838
tp1839
a(g9
S'Tensei shitara Slime Datta Ken'
p1840
tp1841
a(g12
S'Kishuku Gakkou no Juliet'
p1842
tp1843
a(g37
S'Zombieland Saga'
p1844
tp1845
asS'ARKR'
p1846
(lp1847
(g18
S'Jojo no Kimyou na Bouken: Ougon no Kaze'
p1848
tp1849
a(g3
S'Seishun Buta Yarou wa Bunny Girl Senpai no Yume wo Minai'
p1850
tp1851
a(g6
S'Irozuku Sekai no Ashita kara'
p1852
tp1853
a(g9
S'Tensei shitara Slime Datta Ken'
p1854
tp1855
a(g28
S'Radiant'
p1856
tp1857
a(g15
S'Yagate Kimi ni Naru'
p1858
tp1859
a(g54
S'Gakuen Basara'
p1860
tp1861
asS'deathslinky'
p1862
(lp1863
(g6
S'Irozuku Sekai no Ashita kara'
p1864
tp1865
a(g9
S'Tensei shitara Slime Datta Ken'
p1866
tp1867
a(g12
S'Kishuku Gakkou no Juliet'
p1868
tp1869
a(g3
S'Seishun Buta Yarou wa Bunny Girl Senpai no Yume wo Minai'
p1870
tp1871
a(g37
S'Zombieland Saga'
p1872
tp1873
a(g18
S'Jojo no Kimyou na Bouken: Ougon no Kaze'
p1874
tp1875
a(g111
S'Karakuri Circus'
p1876
tp1877
asS'zan1231'
p1878
(lp1879
(g121
S'Toaru Majutsu no Index III'
p1880
tp1881
a(g9
S'Tensei shitara Slime Datta Ken'
p1882
tp1883
a(g12
S'Kishuku Gakkou no Juliet'
p1884
tp1885
a(g6
S'Irozuku Sekai no Ashita kara'
p1886
tp1887
a(g3
S'Seishun Buta Yarou wa Bunny Girl Senpai no Yume wo Minai'
p1888
tp1889
a(g40
S'Golden Kamuy 2nd Season'
p1890
tp1891
a(g28
S'Radiant'
p1892
tp1893
asS'Haruchan-'
p1894
(lp1895
(g28
S'Radiant'
p1896
tp1897
a(g121
S'Toaru Majutsu no Index III'
p1898
tp1899
a(g3
S'Seishun Buta Yarou wa Bunny Girl Senpai no Yume wo Minai'
p1900
tp1901
a(g6
S'Irozuku Sekai no Ashita kara'
p1902
tp1903
a(g9
S'Tensei shitara Slime Datta Ken'
p1904
tp1905
a(g21
S'Ulysses: Jehanne Darc to Renkin no Kishi'
p1906
tp1907
a(g15
S'Yagate Kimi ni Naru'
p1908
tp1909
asS'Psyris'
p1910
(lp1911
(g9
S'Tensei shitara Slime Datta Ken'
p1912
tp1913
a(g3
S'Seishun Buta Yarou wa Bunny Girl Senpai no Yume wo Minai'
p1914
tp1915
a(g37
S'Zombieland Saga'
p1916
tp1917
a(g121
S'Toaru Majutsu no Index III'
p1918
tp1919
a(g6
S'Irozuku Sekai no Ashita kara'
p1920
tp1921
a(g12
S'Kishuku Gakkou no Juliet'
p1922
tp1923
a(g28
S'Radiant'
p1924
tp1925
asS'Contrefacon'
p1926
(lp1927
(g18
S'Jojo no Kimyou na Bouken: Ougon no Kaze'
p1928
tp1929
a(g15
S'Yagate Kimi ni Naru'
p1930
tp1931
a(g6
S'Irozuku Sekai no Ashita kara'
p1932
tp1933
a(g3
S'Seishun Buta Yarou wa Bunny Girl Senpai no Yume wo Minai'
p1934
tp1935
a(g204
S'Tsurune: Kazemai Koukou Kyuudoubu'
p1936
tp1937
a(g37
S'Zombieland Saga'
p1938
tp1939
a(g12
S'Kishuku Gakkou no Juliet'
p1940
tp1941
asS'TURBOPOTATO'
p1942
(lp1943
(g3
S'Seishun Buta Yarou wa Bunny Girl Senpai no Yume wo Minai'
p1944
tp1945
a(g121
S'Toaru Majutsu no Index III'
p1946
tp1947
a(g9
S'Tensei shitara Slime Datta Ken'
p1948
tp1949
a(g6
S'Irozuku Sekai no Ashita kara'
p1950
tp1951
a(g12
S'Kishuku Gakkou no Juliet'
p1952
tp1953
a(g15
S'Yagate Kimi ni Naru'
p1954
tp1955
a(g97
S'Ore ga Suki nano wa Imouto dakedo Imouto ja Nai'
p1956
tp1957
asS'Grimvice'
p1958
(lp1959
(g18
S'Jojo no Kimyou na Bouken: Ougon no Kaze'
p1960
tp1961
a(g74
S'SSSS.Gridman'
p1962
tp1963
a(g12
S'Kishuku Gakkou no Juliet'
p1964
tp1965
a(g28
S'Radiant'
p1966
tp1967
a(g9
S'Tensei shitara Slime Datta Ken'
p1968
tp1969
a(g40
S'Golden Kamuy 2nd Season'
p1970
tp1971
a(g111
S'Karakuri Circus'
p1972
tp1973
asS'Salyee'
p1974
(lp1975
(g9
S'Tensei shitara Slime Datta Ken'
p1976
tp1977
a(g6
S'Irozuku Sekai no Ashita kara'
p1978
tp1979
a(g15
S'Yagate Kimi ni Naru'
p1980
tp1981
a(g3
S'Seishun Buta Yarou wa Bunny Girl Senpai no Yume wo Minai'
p1982
tp1983
a(g18
S'Jojo no Kimyou na Bouken: Ougon no Kaze'
p1984
tp1985
a(g204
S'Tsurune: Kazemai Koukou Kyuudoubu'
p1986
tp1987
a(g12
S'Kishuku Gakkou no Juliet'
p1988
tp1989
asS'EasyGo-er'
p1990
(lp1991
(g9
S'Tensei shitara Slime Datta Ken'
p1992
tp1993
a(g3
S'Seishun Buta Yarou wa Bunny Girl Senpai no Yume wo Minai'
p1994
tp1995
a(g18
S'Jojo no Kimyou na Bouken: Ougon no Kaze'
p1996
tp1997
a(g6
S'Irozuku Sekai no Ashita kara'
p1998
tp1999
a(g12
S'Kishuku Gakkou no Juliet'
p2000
tp2001
a(g15
S'Yagate Kimi ni Naru'
p2002
tp2003
a(g106
S'RErideD: Tokigoe no Derrida'
p2004
tp2005
asS'TuryuriOwO'
p2006
(lp2007
(g18
S'Jojo no Kimyou na Bouken: Ougon no Kaze'
p2008
tp2009
a(g15
S'Yagate Kimi ni Naru'
p2010
tp2011
a(g153
S'Hinomaruzumou'
p2012
tp2013
a(g12
S'Kishuku Gakkou no Juliet'
p2014
tp2015
a(g9
S'Tensei shitara Slime Datta Ken'
p2016
tp2017
a(g269
S'Conception'
p2018
tp2019
a(g97
S'Ore ga Suki nano wa Imouto dakedo Imouto ja Nai'
p2020
tp2021
asS'fst'
p2022
(lp2023
(g15
S'Yagate Kimi ni Naru'
p2024
tp2025
a(g9
S'Tensei shitara Slime Datta Ken'
p2026
tp2027
a(g6
S'Irozuku Sekai no Ashita kara'
p2028
tp2029
a(g3
S'Seishun Buta Yarou wa Bunny Girl Senpai no Yume wo Minai'
p2030
tp2031
a(g121
S'Toaru Majutsu no Index III'
p2032
tp2033
a(g12
S'Kishuku Gakkou no Juliet'
p2034
tp2035
a(g28
S'Radiant'
p2036
tp2037
asS'nat-on-fire'
p2038
(lp2039
(g15
S'Yagate Kimi ni Naru'
p2040
tp2041
a(g3
S'Seishun Buta Yarou wa Bunny Girl Senpai no Yume wo Minai'
p2042
tp2043
a(g12
S'Kishuku Gakkou no Juliet'
p2044
tp2045
a(g6
S'Irozuku Sekai no Ashita kara'
p2046
tp2047
a(g121
S'Toaru Majutsu no Index III'
p2048
tp2049
a(g204
S'Tsurune: Kazemai Koukou Kyuudoubu'
p2050
tp2051
a(g97
S'Ore ga Suki nano wa Imouto dakedo Imouto ja Nai'
p2052
tp2053
asS'Lyfa'
p2054
(lp2055
(g37
S'Zombieland Saga'
p2056
tp2057
a(g15
S'Yagate Kimi ni Naru'
p2058
tp2059
a(g6
S'Irozuku Sekai no Ashita kara'
p2060
tp2061
a(g3
S'Seishun Buta Yarou wa Bunny Girl Senpai no Yume wo Minai'
p2062
tp2063
a(g204
S'Tsurune: Kazemai Koukou Kyuudoubu'
p2064
tp2065
a(g28
S'Radiant'
p2066
tp2067
a(g176
S'Kaze ga Tsuyoku Fuiteiru'
p2068
tp2069
asS'StormSky92'
p2070
(lp2071
(g6
S'Irozuku Sekai no Ashita kara'
p2072
tp2073
a(g3
S'Seishun Buta Yarou wa Bunny Girl Senpai no Yume wo Minai'
p2074
tp2075
a(g9
S'Tensei shitara Slime Datta Ken'
p2076
tp2077
a(g121
S'Toaru Majutsu no Index III'
p2078
tp2079
a(g15
S'Yagate Kimi ni Naru'
p2080
tp2081
a(g40
S'Golden Kamuy 2nd Season'
p2082
tp2083
a(g97
S'Ore ga Suki nano wa Imouto dakedo Imouto ja Nai'
p2084
tp2085
asS'Legendarywarr11'
p2086
(lp2087
(g18
S'Jojo no Kimyou na Bouken: Ougon no Kaze'
p2088
tp2089
a(g40
S'Golden Kamuy 2nd Season'
p2090
tp2091
a(g3
S'Seishun Buta Yarou wa Bunny Girl Senpai no Yume wo Minai'
p2092
tp2093
a(g9
S'Tensei shitara Slime Datta Ken'
p2094
tp2095
a(g28
S'Radiant'
p2096
tp2097
a(g204
S'Tsurune: Kazemai Koukou Kyuudoubu'
p2098
tp2099
a(g6
S'Irozuku Sekai no Ashita kara'
p2100
tp2101
asS'EndlessEnnui'
p2102
(lp2103
(g3
S'Seishun Buta Yarou wa Bunny Girl Senpai no Yume wo Minai'
p2104
tp2105
a(g6
S'Irozuku Sekai no Ashita kara'
p2106
tp2107
a(g9
S'Tensei shitara Slime Datta Ken'
p2108
tp2109
a(g12
S'Kishuku Gakkou no Juliet'
p2110
tp2111
a(g15
S'Yagate Kimi ni Naru'
p2112
tp2113
a(g28
S'Radiant'
p2114
tp2115
a(g37
S'Zombieland Saga'
p2116
tp2117
asS'Astros'
p2118
(lp2119
(g121
S'Toaru Majutsu no Index III'
p2120
tp2121
a(g9
S'Tensei shitara Slime Datta Ken'
p2122
tp2123
a(g6
S'Irozuku Sekai no Ashita kara'
p2124
tp2125
a(g28
S'Radiant'
p2126
tp2127
a(g21
S'Ulysses: Jehanne Darc to Renkin no Kishi'
p2128
tp2129
a(g74
S'SSSS.Gridman'
p2130
tp2131
a(g12
S'Kishuku Gakkou no Juliet'
p2132
tp2133
asS'Samii'
p2134
(lp2135
(g9
S'Tensei shitara Slime Datta Ken'
p2136
tp2137
a(g176
S'Kaze ga Tsuyoku Fuiteiru'
p2138
tp2139
a(g3
S'Seishun Buta Yarou wa Bunny Girl Senpai no Yume wo Minai'
p2140
tp2141
a(g37
S'Zombieland Saga'
p2142
tp2143
a(g6
S'Irozuku Sekai no Ashita kara'
p2144
tp2145
a(g12
S'Kishuku Gakkou no Juliet'
p2146
tp2147
a(g121
S'Toaru Majutsu no Index III'
p2148
tp2149
as.